; Function Attrs: mustprogress uwtable
define noundef ptr @_ZN9grpc_core23ServerCallTracerFactory3GetERKNS_11ChannelArgsE(ptr noundef nonnull align 8 dereferenceable(8) %channel_args) local_unnamed_addr #3 align 2 personality ptr @__gxx_personality_v0 {
entry:
  %call.i.i = tail call noundef ptr @_ZNK9grpc_core11ChannelArgs14GetVoidPointerESt17basic_string_viewIcSt11char_traitsIcEE(ptr noundef nonnull align 8 dereferenceable(8) %channel_args, i64 44, ptr nonnull @.str)
  %cmp = icmp eq ptr %call.i.i, null
  %0 = load ptr, ptr @_ZN9grpc_core12_GLOBAL__N_129g_server_call_tracer_factory_E, align 8
  %spec.select = select i1 %cmp, ptr %0, ptr %call.i.i
  %tobool.not = icmp eq ptr %spec.select, null
  br i1 %tobool.not, label %if.end3, label %land.lhs.true

land.lhs.true:                                    ; preds = %entry
  %vtable = load ptr, ptr %spec.select, align 8
  %vfn = getelementptr inbounds i8, ptr %vtable, i64 24
  %1 = load ptr, ptr %vfn, align 8
  %call1 = tail call noundef zeroext i1 %1(ptr noundef nonnull align 8 dereferenceable(8) %spec.select, ptr noundef nonnull align 8 dereferenceable(8) %channel_args)
  br i1 %call1, label %return, label %if.end3

if.end3:                                          ; preds = %land.lhs.true, %entry
  br label %return

return:                                           ; preds = %land.lhs.true, %if.end3
  %retval.0 = phi ptr [ null, %if.end3 ], [ %spec.select, %land.lhs.true ]
  ret ptr %retval.0
}